target datalayout = "e-m:e-p270:32:32-p271:32:32-p272:64:64-i64:64-i128:128-f80:128-n8:16:32:64-S128"
target triple = "x86_64-pc-linux-gnu"

%struct.gres_slurmd_conf = type { i32, i64, i32, ptr, ptr, ptr, ptr, ptr, ptr, ptr, i32 }

; Function Attrs: nounwind uwtable
define internal void @_pack_gres_slurmd_conf(ptr noundef %0, i16 noundef zeroext %1, ptr noundef %2) #0 {
  %4 = alloca ptr, align 8
  %5 = alloca i16, align 2
  %6 = alloca ptr, align 8
  %7 = alloca ptr, align 8
  %8 = alloca i32, align 4
  %9 = alloca ptr, align 8
  %10 = alloca i32, align 4
  %11 = alloca i32, align 4
  %12 = alloca i32, align 4
  %13 = alloca i32, align 4
  %14 = alloca i32, align 4
  %15 = alloca i32, align 4
  store ptr %0, ptr %4, align 8
  store i16 %1, ptr %5, align 2
  store ptr %2, ptr %6, align 8
  call void @llvm.lifetime.start.p0(i64 8, ptr %7) #11
  %16 = load ptr, ptr %4, align 8
  store ptr %16, ptr %7, align 8
  %17 = load ptr, ptr %7, align 8
  %18 = getelementptr inbounds nuw %struct.gres_slurmd_conf, ptr %17, i32 0, i32 0
  %19 = load i32, ptr %18, align 8
  %20 = load ptr, ptr %6, align 8
  call void @pack32(i32 noundef %19, ptr noundef %20)
  %21 = load ptr, ptr %7, align 8
  %22 = getelementptr inbounds nuw %struct.gres_slurmd_conf, ptr %21, i32 0, i32 1
  %23 = load i64, ptr %22, align 8
  %24 = load ptr, ptr %6, align 8
  call void @pack64(i64 noundef %23, ptr noundef %24)
  %25 = load ptr, ptr %7, align 8
  %26 = getelementptr inbounds nuw %struct.gres_slurmd_conf, ptr %25, i32 0, i32 2
  %27 = load i32, ptr %26, align 8
  %28 = load ptr, ptr %6, align 8
  call void @pack32(i32 noundef %27, ptr noundef %28)
  br label %29

29:                                               ; preds = %3
  call void @llvm.lifetime.start.p0(i64 4, ptr %8) #11
  store i32 0, ptr %8, align 4
  %30 = load ptr, ptr %7, align 8
  %31 = getelementptr inbounds nuw %struct.gres_slurmd_conf, ptr %30, i32 0, i32 3
  %32 = load ptr, ptr %31, align 8
  %33 = icmp ne ptr %32, null
  br i1 %33, label %34, label %41

34:                                               ; preds = %29
  %35 = load ptr, ptr %7, align 8
  %36 = getelementptr inbounds nuw %struct.gres_slurmd_conf, ptr %35, i32 0, i32 3
  %37 = load ptr, ptr %36, align 8
  %38 = call i64 @strlen(ptr noundef %37) #14
  %39 = trunc i64 %38 to i32
  %40 = add i32 %39, 1
  store i32 %40, ptr %8, align 4
  br label %41

41:                                               ; preds = %34, %29
  %42 = load ptr, ptr %7, align 8
  %43 = getelementptr inbounds nuw %struct.gres_slurmd_conf, ptr %42, i32 0, i32 3
  %44 = load ptr, ptr %43, align 8
  %45 = load i32, ptr %8, align 4
  %46 = load ptr, ptr %6, align 8
  call void @packmem(ptr noundef %44, i32 noundef %45, ptr noundef %46)
  call void @llvm.lifetime.end.p0(i64 4, ptr %8) #11
  br label %47

47:                                               ; preds = %41
  br label %48

48:                                               ; preds = %47
  br label %49

49:                                               ; preds = %48
  %50 = load ptr, ptr %7, align 8
  %51 = getelementptr inbounds nuw %struct.gres_slurmd_conf, ptr %50, i32 0, i32 4
  %52 = load ptr, ptr %51, align 8
  %53 = icmp ne ptr %52, null
  br i1 %53, label %54, label %73

54:                                               ; preds = %49
  call void @llvm.lifetime.start.p0(i64 8, ptr %9) #11
  call void @llvm.lifetime.start.p0(i64 4, ptr %10) #11
  %55 = load ptr, ptr %7, align 8
  %56 = getelementptr inbounds nuw %struct.gres_slurmd_conf, ptr %55, i32 0, i32 4
  %57 = load ptr, ptr %56, align 8
  %58 = call ptr @bit_fmt_hexmask(ptr noundef %57)
  store ptr %58, ptr %9, align 8
  %59 = load ptr, ptr %7, align 8
  %60 = getelementptr inbounds nuw %struct.gres_slurmd_conf, ptr %59, i32 0, i32 4
  %61 = load ptr, ptr %60, align 8
  %62 = call i64 @bit_size(ptr noundef %61)
  %63 = trunc i64 %62 to i32
  store i32 %63, ptr %10, align 4
  %64 = load i32, ptr %10, align 4
  %65 = load ptr, ptr %6, align 8
  call void @pack32(i32 noundef %64, ptr noundef %65)
  %66 = load ptr, ptr %9, align 8
  %67 = call i64 @strlen(ptr noundef %66) #14
  %68 = add i64 %67, 1
  %69 = trunc i64 %68 to i32
  store i32 %69, ptr %10, align 4
  %70 = load ptr, ptr %9, align 8
  %71 = load i32, ptr %10, align 4
  %72 = load ptr, ptr %6, align 8
  call void @packmem(ptr noundef %70, i32 noundef %71, ptr noundef %72)
  call void @slurm_xfree(ptr noundef %9)
  call void @llvm.lifetime.end.p0(i64 4, ptr %10) #11
  call void @llvm.lifetime.end.p0(i64 8, ptr %9) #11
  br label %75

73:                                               ; preds = %49
  %74 = load ptr, ptr %6, align 8
  call void @pack32(i32 noundef -2, ptr noundef %74)
  br label %75

75:                                               ; preds = %73, %54
  br label %76

76:                                               ; preds = %75
  br label %77

77:                                               ; preds = %76
  br label %78

78:                                               ; preds = %77
  call void @llvm.lifetime.start.p0(i64 4, ptr %11) #11
  store i32 0, ptr %11, align 4
  %79 = load ptr, ptr %7, align 8
  %80 = getelementptr inbounds nuw %struct.gres_slurmd_conf, ptr %79, i32 0, i32 5
  %81 = load ptr, ptr %80, align 8
  %82 = icmp ne ptr %81, null
  br i1 %82, label %83, label %90

83:                                               ; preds = %78
  %84 = load ptr, ptr %7, align 8
  %85 = getelementptr inbounds nuw %struct.gres_slurmd_conf, ptr %84, i32 0, i32 5
  %86 = load ptr, ptr %85, align 8
  %87 = call i64 @strlen(ptr noundef %86) #14
  %88 = trunc i64 %87 to i32
  %89 = add i32 %88, 1
  store i32 %89, ptr %11, align 4
  br label %90

90:                                               ; preds = %83, %78
  %91 = load ptr, ptr %7, align 8
  %92 = getelementptr inbounds nuw %struct.gres_slurmd_conf, ptr %91, i32 0, i32 5
  %93 = load ptr, ptr %92, align 8
  %94 = load i32, ptr %11, align 4
  %95 = load ptr, ptr %6, align 8
  call void @packmem(ptr noundef %93, i32 noundef %94, ptr noundef %95)
  call void @llvm.lifetime.end.p0(i64 4, ptr %11) #11
  br label %96

96:                                               ; preds = %90
  br label %97

97:                                               ; preds = %96
  br label %98

98:                                               ; preds = %97
  call void @llvm.lifetime.start.p0(i64 4, ptr %12) #11
  store i32 0, ptr %12, align 4
  %99 = load ptr, ptr %7, align 8
  %100 = getelementptr inbounds nuw %struct.gres_slurmd_conf, ptr %99, i32 0, i32 6
  %101 = load ptr, ptr %100, align 8
  %102 = icmp ne ptr %101, null
  br i1 %102, label %103, label %110

103:                                              ; preds = %98
  %104 = load ptr, ptr %7, align 8
  %105 = getelementptr inbounds nuw %struct.gres_slurmd_conf, ptr %104, i32 0, i32 6
  %106 = load ptr, ptr %105, align 8
  %107 = call i64 @strlen(ptr noundef %106) #14
  %108 = trunc i64 %107 to i32
  %109 = add i32 %108, 1
  store i32 %109, ptr %12, align 4
  br label %110

110:                                              ; preds = %103, %98
  %111 = load ptr, ptr %7, align 8
  %112 = getelementptr inbounds nuw %struct.gres_slurmd_conf, ptr %111, i32 0, i32 6
  %113 = load ptr, ptr %112, align 8
  %114 = load i32, ptr %12, align 4
  %115 = load ptr, ptr %6, align 8
  call void @packmem(ptr noundef %113, i32 noundef %114, ptr noundef %115)
  call void @llvm.lifetime.end.p0(i64 4, ptr %12) #11
  br label %116

116:                                              ; preds = %110
  br label %117

117:                                              ; preds = %116
  br label %118

118:                                              ; preds = %117
  call void @llvm.lifetime.start.p0(i64 4, ptr %13) #11
  store i32 0, ptr %13, align 4
  %119 = load ptr, ptr %7, align 8
  %120 = getelementptr inbounds nuw %struct.gres_slurmd_conf, ptr %119, i32 0, i32 7
  %121 = load ptr, ptr %120, align 8
  %122 = icmp ne ptr %121, null
  br i1 %122, label %123, label %130

123:                                              ; preds = %118
  %124 = load ptr, ptr %7, align 8
  %125 = getelementptr inbounds nuw %struct.gres_slurmd_conf, ptr %124, i32 0, i32 7
  %126 = load ptr, ptr %125, align 8
  %127 = call i64 @strlen(ptr noundef %126) #14
  %128 = trunc i64 %127 to i32
  %129 = add i32 %128, 1
  store i32 %129, ptr %13, align 4
  br label %130

130:                                              ; preds = %123, %118
  %131 = load ptr, ptr %7, align 8
  %132 = getelementptr inbounds nuw %struct.gres_slurmd_conf, ptr %131, i32 0, i32 7
  %133 = load ptr, ptr %132, align 8
  %134 = load i32, ptr %13, align 4
  %135 = load ptr, ptr %6, align 8
  call void @packmem(ptr noundef %133, i32 noundef %134, ptr noundef %135)
  call void @llvm.lifetime.end.p0(i64 4, ptr %13) #11
  br label %136

136:                                              ; preds = %130
  br label %137

137:                                              ; preds = %136
  br label %138

138:                                              ; preds = %137
  call void @llvm.lifetime.start.p0(i64 4, ptr %14) #11
  store i32 0, ptr %14, align 4
  %139 = load ptr, ptr %7, align 8
  %140 = getelementptr inbounds nuw %struct.gres_slurmd_conf, ptr %139, i32 0, i32 8
  %141 = load ptr, ptr %140, align 8
  %142 = icmp ne ptr %141, null
  br i1 %142, label %143, label %150

143:                                              ; preds = %138
  %144 = load ptr, ptr %7, align 8
  %145 = getelementptr inbounds nuw %struct.gres_slurmd_conf, ptr %144, i32 0, i32 8
  %146 = load ptr, ptr %145, align 8
  %147 = call i64 @strlen(ptr noundef %146) #14
  %148 = trunc i64 %147 to i32
  %149 = add i32 %148, 1
  store i32 %149, ptr %14, align 4
  br label %150

150:                                              ; preds = %143, %138
  %151 = load ptr, ptr %7, align 8
  %152 = getelementptr inbounds nuw %struct.gres_slurmd_conf, ptr %151, i32 0, i32 8
  %153 = load ptr, ptr %152, align 8
  %154 = load i32, ptr %14, align 4
  %155 = load ptr, ptr %6, align 8
  call void @packmem(ptr noundef %153, i32 noundef %154, ptr noundef %155)
  call void @llvm.lifetime.end.p0(i64 4, ptr %14) #11
  br label %156

156:                                              ; preds = %150
  br label %157

157:                                              ; preds = %156
  br label %158

158:                                              ; preds = %157
  call void @llvm.lifetime.start.p0(i64 4, ptr %15) #11
  store i32 0, ptr %15, align 4
  %159 = load ptr, ptr %7, align 8
  %160 = getelementptr inbounds nuw %struct.gres_slurmd_conf, ptr %159, i32 0, i32 9
  %161 = load ptr, ptr %160, align 8
  %162 = icmp ne ptr %161, null
  br i1 %162, label %163, label %170

163:                                              ; preds = %158
  %164 = load ptr, ptr %7, align 8
  %165 = getelementptr inbounds nuw %struct.gres_slurmd_conf, ptr %164, i32 0, i32 9
  %166 = load ptr, ptr %165, align 8
  %167 = call i64 @strlen(ptr noundef %166) #14
  %168 = trunc i64 %167 to i32
  %169 = add i32 %168, 1
  store i32 %169, ptr %15, align 4
  br label %170

170:                                              ; preds = %163, %158
  %171 = load ptr, ptr %7, align 8
  %172 = getelementptr inbounds nuw %struct.gres_slurmd_conf, ptr %171, i32 0, i32 9
  %173 = load ptr, ptr %172, align 8
  %174 = load i32, ptr %15, align 4
  %175 = load ptr, ptr %6, align 8
  call void @packmem(ptr noundef %173, i32 noundef %174, ptr noundef %175)
  call void @llvm.lifetime.end.p0(i64 4, ptr %15) #11
  br label %176

176:                                              ; preds = %170
  br label %177

177:                                              ; preds = %176
  %178 = load ptr, ptr %7, align 8
  %179 = getelementptr inbounds nuw %struct.gres_slurmd_conf, ptr %178, i32 0, i32 10
  %180 = load i32, ptr %179, align 8
  %181 = load ptr, ptr %6, align 8
  call void @pack32(i32 noundef %180, ptr noundef %181)
  call void @llvm.lifetime.end.p0(i64 8, ptr %7) #11
  ret void
}