; Function Attrs: nounwind uwtable
define internal void @_pack_gres_slurmd_conf(ptr noundef readonly captures(none) %0, i16 zeroext %1, ptr noundef %2) #2 {
  %4 = alloca ptr, align 8
  %5 = load i32, ptr %0, align 8
  tail call void @pack32(i32 noundef %5, ptr noundef %2) #28
  %6 = getelementptr inbounds nuw i8, ptr %0, i64 8
  %7 = load i64, ptr %6, align 8
  tail call void @pack64(i64 noundef %7, ptr noundef %2) #28
  %8 = getelementptr inbounds nuw i8, ptr %0, i64 16
  %9 = load i32, ptr %8, align 8
  tail call void @pack32(i32 noundef %9, ptr noundef %2) #28
  %10 = getelementptr inbounds nuw i8, ptr %0, i64 24
  %11 = load ptr, ptr %10, align 8
  %.not = icmp eq ptr %11, null
  br i1 %.not, label %16, label %12

12:                                               ; preds = %3
  %13 = tail call i64 @strlen(ptr noundef nonnull dereferenceable(1) %11) #31
  %14 = trunc i64 %13 to i32
  %15 = add i32 %14, 1
  br label %16

16:                                               ; preds = %12, %3
  %.050 = phi i32 [ %15, %12 ], [ 0, %3 ]
  tail call void @packmem(ptr noundef %11, i32 noundef %.050, ptr noundef %2) #28
  %17 = getelementptr inbounds nuw i8, ptr %0, i64 32
  %18 = load ptr, ptr %17, align 8
  %.not57 = icmp eq ptr %18, null
  br i1 %.not57, label %27, label %19

19:                                               ; preds = %16
  call void @llvm.lifetime.start.p0(i64 8, ptr nonnull %4) #28
  %20 = tail call ptr @bit_fmt_hexmask(ptr noundef nonnull %18) #28
  store ptr %20, ptr %4, align 8
  %21 = load ptr, ptr %17, align 8
  %22 = tail call i64 @bit_size(ptr noundef %21) #28
  %23 = trunc i64 %22 to i32
  tail call void @pack32(i32 noundef %23, ptr noundef %2) #28
  %24 = tail call i64 @strlen(ptr noundef nonnull dereferenceable(1) %20) #31
  %25 = trunc i64 %24 to i32
  %26 = add i32 %25, 1
  tail call void @packmem(ptr noundef nonnull %20, i32 noundef %26, ptr noundef %2) #28
  call void @slurm_xfree(ptr noundef nonnull %4) #28
  call void @llvm.lifetime.end.p0(i64 8, ptr nonnull %4) #28
  br label %28

27:                                               ; preds = %16
  tail call void @pack32(i32 noundef -2, ptr noundef %2) #28
  br label %28

28:                                               ; preds = %19, %27
  %29 = getelementptr inbounds nuw i8, ptr %0, i64 40
  %30 = load ptr, ptr %29, align 8
  %.not58 = icmp eq ptr %30, null
  br i1 %.not58, label %35, label %31

31:                                               ; preds = %28
  %32 = call i64 @strlen(ptr noundef nonnull dereferenceable(1) %30) #31
  %33 = trunc i64 %32 to i32
  %34 = add i32 %33, 1
  br label %35

35:                                               ; preds = %31, %28
  %.049 = phi i32 [ %34, %31 ], [ 0, %28 ]
  call void @packmem(ptr noundef %30, i32 noundef %.049, ptr noundef %2) #28
  %36 = getelementptr inbounds nuw i8, ptr %0, i64 48
  %37 = load ptr, ptr %36, align 8
  %.not59 = icmp eq ptr %37, null
  br i1 %.not59, label %42, label %38

38:                                               ; preds = %35
  %39 = call i64 @strlen(ptr noundef nonnull dereferenceable(1) %37) #31
  %40 = trunc i64 %39 to i32
  %41 = add i32 %40, 1
  br label %42

42:                                               ; preds = %38, %35
  %.048 = phi i32 [ %41, %38 ], [ 0, %35 ]
  call void @packmem(ptr noundef %37, i32 noundef %.048, ptr noundef %2) #28
  %43 = getelementptr inbounds nuw i8, ptr %0, i64 56
  %44 = load ptr, ptr %43, align 8
  %.not60 = icmp eq ptr %44, null
  br i1 %.not60, label %49, label %45

45:                                               ; preds = %42
  %46 = call i64 @strlen(ptr noundef nonnull dereferenceable(1) %44) #31
  %47 = trunc i64 %46 to i32
  %48 = add i32 %47, 1
  br label %49

49:                                               ; preds = %45, %42
  %.047 = phi i32 [ %48, %45 ], [ 0, %42 ]
  call void @packmem(ptr noundef %44, i32 noundef %.047, ptr noundef %2) #28
  %50 = getelementptr inbounds nuw i8, ptr %0, i64 64
  %51 = load ptr, ptr %50, align 8
  %.not61 = icmp eq ptr %51, null
  br i1 %.not61, label %56, label %52

52:                                               ; preds = %49
  %53 = call i64 @strlen(ptr noundef nonnull dereferenceable(1) %51) #31
  %54 = trunc i64 %53 to i32
  %55 = add i32 %54, 1
  br label %56

56:                                               ; preds = %52, %49
  %.046 = phi i32 [ %55, %52 ], [ 0, %49 ]
  call void @packmem(ptr noundef %51, i32 noundef %.046, ptr noundef %2) #28
  %57 = getelementptr inbounds nuw i8, ptr %0, i64 72
  %58 = load ptr, ptr %57, align 8
  %.not62 = icmp eq ptr %58, null
  br i1 %.not62, label %63, label %59

59:                                               ; preds = %56
  %60 = call i64 @strlen(ptr noundef nonnull dereferenceable(1) %58) #31
  %61 = trunc i64 %60 to i32
  %62 = add i32 %61, 1
  br label %63

63:                                               ; preds = %59, %56
  %.0 = phi i32 [ %62, %59 ], [ 0, %56 ]
  call void @packmem(ptr noundef %58, i32 noundef %.0, ptr noundef %2) #28
  %64 = getelementptr inbounds nuw i8, ptr %0, i64 80
  %65 = load i32, ptr %64, align 8
  call void @pack32(i32 noundef %65, ptr noundef %2) #28
  ret void
}